target datalayout = "e-m:e-p270:32:32-p271:32:32-p272:64:64-i64:64-i128:128-f80:128-n8:16:32:64-S128"
target triple = "x86_64-pc-linux-gnu"

%"class.logos::Match" = type { ptr, ptr, float, float, float, float, float, float, float, float, float, float }
%"class.logos::PointPair" = type <{ ptr, ptr, i32, float, float, i32, i32, [4 x i8] }>

; Function Attrs: inlinehint mustprogress nounwind uwtable
define linkonce_odr noundef float @_ZSt4fabsf(float noundef %0) #6 comdat {
  %2 = alloca float, align 4
  store float %0, ptr %2, align 4, !tbaa !20
  %3 = load float, ptr %2, align 4, !tbaa !20
  %4 = call float @llvm.fabs.f32(float %3)
  ret float %4
}

; Function Attrs: mustprogress nounwind uwtable
define linkonce_odr hidden noundef float @_ZNK5logos9PointPair11getRelScaleEv(ptr noundef nonnull align 8 dereferenceable(36) %0) #5 comdat align 2 {
  %2 = alloca ptr, align 8
  store ptr %0, ptr %2, align 8, !tbaa !8
  %3 = load ptr, ptr %2, align 8
  %4 = getelementptr inbounds nuw %"class.logos::PointPair", ptr %3, i32 0, i32 4
  %5 = load float, ptr %4, align 8, !tbaa !33
  ret float %5
}

; Function Attrs: mustprogress uwtable
define hidden noundef float @_ZN5logos5Match12angleAbsDiffEff(ptr noundef nonnull align 8 dereferenceable(56) %0, float noundef %1, float noundef %2) #4 align 2 {
  %4 = alloca ptr, align 8
  %5 = alloca float, align 4
  %6 = alloca float, align 4
  %7 = alloca float, align 4
  %8 = alloca float, align 4
  %9 = alloca float, align 4
  store ptr %0, ptr %4, align 8, !tbaa !3
  store float %1, ptr %5, align 4, !tbaa !20
  store float %2, ptr %6, align 4, !tbaa !20
  call void @llvm.lifetime.start.p0(i64 4, ptr %7) #3
  %10 = load float, ptr %5, align 4, !tbaa !20
  %11 = load float, ptr %6, align 4, !tbaa !20
  %12 = fsub float %10, %11
  %13 = call noundef float @_ZSt4fabsf(float noundef %12)
  store float %13, ptr %7, align 4, !tbaa !20
  br label %14

14:                                               ; preds = %18, %3
  %15 = load float, ptr %7, align 4, !tbaa !20
  %16 = fpext float %15 to double
  %17 = fcmp ogt double %16, 0x401921FB54442D18
  br i1 %17, label %18, label %23

18:                                               ; preds = %14
  %19 = load float, ptr %7, align 4, !tbaa !20
  %20 = fpext float %19 to double
  %21 = fsub double %20, 0x401921FB54442D18
  %22 = fptrunc double %21 to float
  store float %22, ptr %7, align 4, !tbaa !20
  br label %14, !llvm.loop !30

23:                                               ; preds = %14
  call void @llvm.lifetime.start.p0(i64 4, ptr %8) #3
  %24 = load float, ptr %7, align 4, !tbaa !20
  %25 = call noundef float @_ZSt4fabsf(float noundef %24)
  store float %25, ptr %8, align 4, !tbaa !20
  call void @llvm.lifetime.start.p0(i64 4, ptr %9) #3
  %26 = load float, ptr %7, align 4, !tbaa !20
  %27 = call noundef float @_ZSt4fabsf(float noundef %26)
  %28 = fpext float %27 to double
  %29 = fsub double 0x401921FB54442D18, %28
  %30 = fptrunc double %29 to float
  %31 = call noundef float @_ZSt4fabsf(float noundef %30)
  store float %31, ptr %9, align 4, !tbaa !20
  %32 = call noundef nonnull align 4 dereferenceable(4) ptr @_ZSt3minIfERKT_S2_S2_(ptr noundef nonnull align 4 dereferenceable(4) %8, ptr noundef nonnull align 4 dereferenceable(4) %9)
  %33 = load float, ptr %32, align 4, !tbaa !20
  store float %33, ptr %7, align 4, !tbaa !20
  call void @llvm.lifetime.end.p0(i64 4, ptr %9) #3
  call void @llvm.lifetime.end.p0(i64 4, ptr %8) #3
  %34 = load float, ptr %7, align 4, !tbaa !20
  call void @llvm.lifetime.end.p0(i64 4, ptr %7) #3
  ret float %34
}

; Function Attrs: mustprogress nounwind uwtable
define linkonce_odr hidden noundef float @_ZNK5logos9PointPair9getRelOriEv(ptr noundef nonnull align 8 dereferenceable(36) %0) #5 comdat align 2 {
  %2 = alloca ptr, align 8
  store ptr %0, ptr %2, align 8, !tbaa !8
  %3 = load ptr, ptr %2, align 8
  %4 = getelementptr inbounds nuw %"class.logos::PointPair", ptr %3, i32 0, i32 3
  %5 = load float, ptr %4, align 4, !tbaa !32
  ret float %5
}

; Function Attrs: inlinehint mustprogress nounwind uwtable
define linkonce_odr noundef float @_ZSt3logf(float noundef %0) #6 comdat {
  %2 = alloca float, align 4
  store float %0, ptr %2, align 4, !tbaa !20
  %3 = load float, ptr %2, align 4, !tbaa !20
  %4 = call float @logf(float noundef %3) #3, !tbaa !36
  ret float %4
}

; Function Attrs: mustprogress nounwind uwtable
define hidden noundef i32 @_ZN5logos5Match4signEf(ptr noundef nonnull align 8 dereferenceable(56) %0, float noundef %1) #5 align 2 {
  %3 = alloca ptr, align 8
  %4 = alloca float, align 4
  store ptr %0, ptr %3, align 8, !tbaa !3
  store float %1, ptr %4, align 4, !tbaa !20
  %5 = load float, ptr %4, align 4, !tbaa !20
  %6 = fcmp ogt float %5, 0.000000e+00
  %7 = zext i1 %6 to i32
  %8 = load float, ptr %4, align 4, !tbaa !20
  %9 = fcmp olt float %8, 0.000000e+00
  %10 = zext i1 %9 to i32
  %11 = sub nsw i32 %7, %10
  ret i32 %11
}

; Function Attrs: inlinehint mustprogress nounwind uwtable
define linkonce_odr noundef float @_ZSt4acosf(float noundef %0) #6 comdat {
  %2 = alloca float, align 4
  store float %0, ptr %2, align 4, !tbaa !20
  %3 = load float, ptr %2, align 4, !tbaa !20
  %4 = call float @acosf(float noundef %3) #3, !tbaa !36
  ret float %4
}

; Function Attrs: inlinehint mustprogress nounwind uwtable
define linkonce_odr noundef nonnull align 4 dereferenceable(4) ptr @_ZSt3minIfERKT_S2_S2_(ptr noundef nonnull align 4 dereferenceable(4) %0, ptr noundef nonnull align 4 dereferenceable(4) %1) #6 comdat {
  %3 = alloca ptr, align 8
  %4 = alloca ptr, align 8
  %5 = alloca ptr, align 8
  store ptr %0, ptr %4, align 8, !tbaa !34
  store ptr %1, ptr %5, align 8, !tbaa !34
  %6 = load ptr, ptr %5, align 8, !tbaa !34
  %7 = load float, ptr %6, align 4, !tbaa !20
  %8 = load ptr, ptr %4, align 8, !tbaa !34
  %9 = load float, ptr %8, align 4, !tbaa !20
  %10 = fcmp olt float %7, %9
  br i1 %10, label %11, label %13

11:                                               ; preds = %2
  %12 = load ptr, ptr %5, align 8, !tbaa !34
  store ptr %12, ptr %3, align 8
  br label %15

13:                                               ; preds = %2
  %14 = load ptr, ptr %4, align 8, !tbaa !34
  store ptr %14, ptr %3, align 8
  br label %15

15:                                               ; preds = %13, %11
  %16 = load ptr, ptr %3, align 8
  ret ptr %16
}

; Function Attrs: inlinehint mustprogress nounwind uwtable
define linkonce_odr noundef nonnull align 4 dereferenceable(4) ptr @_ZSt3maxIfERKT_S2_S2_(ptr noundef nonnull align 4 dereferenceable(4) %0, ptr noundef nonnull align 4 dereferenceable(4) %1) #6 comdat {
  %3 = alloca ptr, align 8
  %4 = alloca ptr, align 8
  %5 = alloca ptr, align 8
  store ptr %0, ptr %4, align 8, !tbaa !34
  store ptr %1, ptr %5, align 8, !tbaa !34
  %6 = load ptr, ptr %4, align 8, !tbaa !34
  %7 = load float, ptr %6, align 4, !tbaa !20
  %8 = load ptr, ptr %5, align 8, !tbaa !34
  %9 = load float, ptr %8, align 4, !tbaa !20
  %10 = fcmp olt float %7, %9
  br i1 %10, label %11, label %13

11:                                               ; preds = %2
  %12 = load ptr, ptr %5, align 8, !tbaa !34
  store ptr %12, ptr %3, align 8
  br label %15

13:                                               ; preds = %2
  %14 = load ptr, ptr %4, align 8, !tbaa !34
  store ptr %14, ptr %3, align 8
  br label %15

15:                                               ; preds = %13, %11
  %16 = load ptr, ptr %3, align 8
  ret ptr %16
}

; Function Attrs: inlinehint mustprogress nounwind uwtable
define linkonce_odr noundef float @_ZSt4sqrtf(float noundef %0) #6 comdat {
  %2 = alloca float, align 4
  store float %0, ptr %2, align 4, !tbaa !20
  %3 = load float, ptr %2, align 4, !tbaa !20
  %4 = call float @sqrtf(float noundef %3) #3, !tbaa !36
  ret float %4
}

; Function Attrs: mustprogress uwtable
define hidden void @_ZN5logos5Match24interOrientationAndScaleEv(ptr noundef nonnull align 8 dereferenceable(56) %0) #4 align 2 {
  %2 = alloca ptr, align 8
  %3 = alloca float, align 4
  %4 = alloca float, align 4
  %5 = alloca float, align 4
  %6 = alloca float, align 4
  %7 = alloca float, align 4
  %8 = alloca float, align 4
  store ptr %0, ptr %2, align 8, !tbaa !3
  %9 = load ptr, ptr %2, align 8
  call void @llvm.lifetime.start.p0(i64 4, ptr %3) #3
  %10 = getelementptr inbounds nuw %"class.logos::Match", ptr %9, i32 0, i32 8
  %11 = load float, ptr %10, align 8, !tbaa !14
  %12 = getelementptr inbounds nuw %"class.logos::Match", ptr %9, i32 0, i32 11
  %13 = load float, ptr %12, align 4, !tbaa !17
  %14 = getelementptr inbounds nuw %"class.logos::Match", ptr %9, i32 0, i32 9
  %15 = load float, ptr %14, align 4, !tbaa !15
  %16 = getelementptr inbounds nuw %"class.logos::Match", ptr %9, i32 0, i32 10
  %17 = load float, ptr %16, align 8, !tbaa !16
  %18 = fmul float %15, %17
  %19 = fneg float %18
  %20 = call float @llvm.fmuladd.f32(float %11, float %13, float %19)
  store float %20, ptr %3, align 4, !tbaa !20
  call void @llvm.lifetime.start.p0(i64 4, ptr %4) #3
  %21 = getelementptr inbounds nuw %"class.logos::Match", ptr %9, i32 0, i32 8
  %22 = load float, ptr %21, align 8, !tbaa !14
  %23 = getelementptr inbounds nuw %"class.logos::Match", ptr %9, i32 0, i32 8
  %24 = load float, ptr %23, align 8, !tbaa !14
  %25 = getelementptr inbounds nuw %"class.logos::Match", ptr %9, i32 0, i32 9
  %26 = load float, ptr %25, align 4, !tbaa !15
  %27 = getelementptr inbounds nuw %"class.logos::Match", ptr %9, i32 0, i32 9
  %28 = load float, ptr %27, align 4, !tbaa !15
  %29 = fmul float %26, %28
  %30 = call float @llvm.fmuladd.f32(float %22, float %24, float %29)
  %31 = call noundef float @_ZSt4sqrtf(float noundef %30)
  store float %31, ptr %4, align 4, !tbaa !20
  call void @llvm.lifetime.start.p0(i64 4, ptr %5) #3
  %32 = getelementptr inbounds nuw %"class.logos::Match", ptr %9, i32 0, i32 10
  %33 = load float, ptr %32, align 8, !tbaa !16
  %34 = getelementptr inbounds nuw %"class.logos::Match", ptr %9, i32 0, i32 10
  %35 = load float, ptr %34, align 8, !tbaa !16
  %36 = getelementptr inbounds nuw %"class.logos::Match", ptr %9, i32 0, i32 11
  %37 = load float, ptr %36, align 4, !tbaa !17
  %38 = getelementptr inbounds nuw %"class.logos::Match", ptr %9, i32 0, i32 11
  %39 = load float, ptr %38, align 4, !tbaa !17
  %40 = fmul float %37, %39
  %41 = call float @llvm.fmuladd.f32(float %33, float %35, float %40)
  %42 = call noundef float @_ZSt4sqrtf(float noundef %41)
  store float %42, ptr %5, align 4, !tbaa !20
  call void @llvm.lifetime.start.p0(i64 4, ptr %6) #3
  %43 = getelementptr inbounds nuw %"class.logos::Match", ptr %9, i32 0, i32 8
  %44 = load float, ptr %43, align 8, !tbaa !14
  %45 = getelementptr inbounds nuw %"class.logos::Match", ptr %9, i32 0, i32 10
  %46 = load float, ptr %45, align 8, !tbaa !16
  %47 = getelementptr inbounds nuw %"class.logos::Match", ptr %9, i32 0, i32 9
  %48 = load float, ptr %47, align 4, !tbaa !15
  %49 = getelementptr inbounds nuw %"class.logos::Match", ptr %9, i32 0, i32 11
  %50 = load float, ptr %49, align 4, !tbaa !17
  %51 = fmul float %48, %50
  %52 = call float @llvm.fmuladd.f32(float %44, float %46, float %51)
  %53 = load float, ptr %4, align 4, !tbaa !20
  %54 = load float, ptr %5, align 4, !tbaa !20
  %55 = fmul float %53, %54
  %56 = fdiv float %52, %55
  store float %56, ptr %6, align 4, !tbaa !20
  call void @llvm.lifetime.start.p0(i64 4, ptr %7) #3
  store float -1.000000e+00, ptr %7, align 4, !tbaa !20
  %57 = call noundef nonnull align 4 dereferenceable(4) ptr @_ZSt3maxIfERKT_S2_S2_(ptr noundef nonnull align 4 dereferenceable(4) %6, ptr noundef nonnull align 4 dereferenceable(4) %7)
  call void @llvm.lifetime.start.p0(i64 4, ptr %8) #3
  store float 1.000000e+00, ptr %8, align 4, !tbaa !20
  %58 = call noundef nonnull align 4 dereferenceable(4) ptr @_ZSt3minIfERKT_S2_S2_(ptr noundef nonnull align 4 dereferenceable(4) %57, ptr noundef nonnull align 4 dereferenceable(4) %8)
  %59 = load float, ptr %58, align 4, !tbaa !20
  store float %59, ptr %6, align 4, !tbaa !20
  call void @llvm.lifetime.end.p0(i64 4, ptr %8) #3
  call void @llvm.lifetime.end.p0(i64 4, ptr %7) #3
  %60 = load float, ptr %6, align 4, !tbaa !20
  %61 = call noundef float @_ZSt4acosf(float noundef %60)
  %62 = load float, ptr %3, align 4, !tbaa !20
  %63 = call noundef i32 @_ZN5logos5Match4signEf(ptr noundef nonnull align 8 dereferenceable(56) %9, float noundef %62)
  %64 = sitofp i32 %63 to float
  %65 = fmul float %61, %64
  %66 = getelementptr inbounds nuw %"class.logos::Match", ptr %9, i32 0, i32 6
  store float %65, ptr %66, align 8, !tbaa !21
  %67 = load float, ptr %4, align 4, !tbaa !20
  %68 = call noundef float @_ZSt3logf(float noundef %67)
  %69 = load float, ptr %5, align 4, !tbaa !20
  %70 = call noundef float @_ZSt3logf(float noundef %69)
  %71 = fsub float %68, %70
  %72 = getelementptr inbounds nuw %"class.logos::Match", ptr %9, i32 0, i32 7
  store float %71, ptr %72, align 4, !tbaa !22
  %73 = getelementptr inbounds nuw %"class.logos::Match", ptr %9, i32 0, i32 0
  %74 = load ptr, ptr %73, align 8, !tbaa !10
  %75 = call noundef float @_ZNK5logos9PointPair9getRelOriEv(ptr noundef nonnull align 8 dereferenceable(36) %74)
  %76 = getelementptr inbounds nuw %"class.logos::Match", ptr %9, i32 0, i32 6
  %77 = load float, ptr %76, align 8, !tbaa !21
  %78 = call noundef float @_ZN5logos5Match12angleAbsDiffEff(ptr noundef nonnull align 8 dereferenceable(56) %9, float noundef %75, float noundef %77)
  %79 = getelementptr inbounds nuw %"class.logos::Match", ptr %9, i32 0, i32 4
  store float %78, ptr %79, align 8, !tbaa !23
  %80 = getelementptr inbounds nuw %"class.logos::Match", ptr %9, i32 0, i32 0
  %81 = load ptr, ptr %80, align 8, !tbaa !10
  %82 = call noundef float @_ZNK5logos9PointPair11getRelScaleEv(ptr noundef nonnull align 8 dereferenceable(36) %81)
  %83 = getelementptr inbounds nuw %"class.logos::Match", ptr %9, i32 0, i32 7
  %84 = load float, ptr %83, align 4, !tbaa !22
  %85 = fsub float %82, %84
  %86 = call noundef float @_ZSt4fabsf(float noundef %85)
  %87 = getelementptr inbounds nuw %"class.logos::Match", ptr %9, i32 0, i32 5
  store float %86, ptr %87, align 4, !tbaa !24
  call void @llvm.lifetime.end.p0(i64 4, ptr %6) #3
  call void @llvm.lifetime.end.p0(i64 4, ptr %5) #3
  call void @llvm.lifetime.end.p0(i64 4, ptr %4) #3
  call void @llvm.lifetime.end.p0(i64 4, ptr %3) #3
  ret void
}