; Function Attrs: mustprogress nofree nounwind memory(readwrite, inaccessiblemem: write) uwtable
define hidden void @_ZN5logos5Match24interOrientationAndScaleEv(ptr noundef nonnull align 8 captures(none) dereferenceable(56) initializes((32, 40)) %0) local_unnamed_addr #3 align 2 {
  %2 = getelementptr inbounds nuw i8, ptr %0, i64 40
  %3 = load float, ptr %2, align 8, !tbaa !24
  %4 = getelementptr inbounds nuw i8, ptr %0, i64 52
  %5 = load float, ptr %4, align 4, !tbaa !29
  %6 = getelementptr inbounds nuw i8, ptr %0, i64 44
  %7 = load float, ptr %6, align 4, !tbaa !26
  %8 = getelementptr inbounds nuw i8, ptr %0, i64 48
  %9 = load float, ptr %8, align 8, !tbaa !28
  %10 = fneg float %9
  %11 = fmul float %7, %10
  %12 = tail call float @llvm.fmuladd.f32(float %3, float %5, float %11)
  %13 = fmul float %7, %7
  %14 = tail call float @llvm.fmuladd.f32(float %3, float %3, float %13)
  %sqrt10 = tail call float @llvm.sqrt.f32(float %14)
  %15 = fmul float %5, %5
  %16 = tail call float @llvm.fmuladd.f32(float %9, float %9, float %15)
  %sqrt = tail call float @llvm.sqrt.f32(float %16)
  %17 = fmul float %5, %7
  %18 = tail call float @llvm.fmuladd.f32(float %3, float %9, float %17)
  %19 = fmul float %sqrt10, %sqrt
  %20 = fdiv float %18, %19
  %21 = fcmp olt float %20, -1.000000e+00
  %.sroa.speculated7 = select i1 %21, float -1.000000e+00, float %20
  %22 = fcmp ogt float %.sroa.speculated7, 1.000000e+00
  %.sroa.speculated = select i1 %22, float 1.000000e+00, float %.sroa.speculated7
  %23 = tail call noundef float @acosf(float noundef %.sroa.speculated) #13, !tbaa !36
  %24 = fcmp ogt float %12, 0.000000e+00
  %25 = zext i1 %24 to i32
  %26 = fcmp olt float %12, 0.000000e+00
  %.neg.i = sext i1 %26 to i32
  %27 = add nsw i32 %.neg.i, %25
  %28 = sitofp i32 %27 to float
  %29 = fmul float %23, %28
  %30 = getelementptr inbounds nuw i8, ptr %0, i64 32
  store float %29, ptr %30, align 8, !tbaa !37
  %31 = tail call noundef float @logf(float noundef %sqrt10) #13, !tbaa !36
  %32 = tail call noundef float @logf(float noundef %sqrt) #13, !tbaa !36
  %33 = fsub float %31, %32
  %34 = getelementptr inbounds nuw i8, ptr %0, i64 36
  store float %33, ptr %34, align 4, !tbaa !38
  %35 = load ptr, ptr %0, align 8, !tbaa !3
  %36 = getelementptr inbounds nuw i8, ptr %35, i64 20
  %37 = load float, ptr %36, align 4, !tbaa !30
  %38 = fsub float %37, %29
  %39 = tail call noundef float @llvm.fabs.f32(float %38)
  %40 = fpext float %39 to double
  %41 = fcmp ogt double %40, 0x401921FB54442D18
  br i1 %41, label %.lr.ph.i, label %_ZN5logos5Match12angleAbsDiffEff.exit

.lr.ph.i:                                         ; preds = %1, %.lr.ph.i
  %42 = phi double [ %45, %.lr.ph.i ], [ %40, %1 ]
  %43 = fadd double %42, 0xC01921FB54442D18
  %44 = fptrunc double %43 to float
  %45 = fpext float %44 to double
  %46 = fcmp ogt double %45, 0x401921FB54442D18
  br i1 %46, label %.lr.ph.i, label %_ZN5logos5Match12angleAbsDiffEff.exit, !llvm.loop !31

_ZN5logos5Match12angleAbsDiffEff.exit:            ; preds = %.lr.ph.i, %1
  %.0.lcssa.i = phi float [ %39, %1 ], [ %44, %.lr.ph.i ]
  %47 = tail call noundef float @llvm.fabs.f32(float %.0.lcssa.i)
  %48 = fpext float %47 to double
  %49 = fsub double 0x401921FB54442D18, %48
  %50 = fptrunc double %49 to float
  %51 = tail call noundef float @llvm.fabs.f32(float %50)
  %52 = fcmp olt float %51, %47
  %.sroa.speculated.i = select i1 %52, float %51, float %47
  %53 = getelementptr inbounds nuw i8, ptr %0, i64 24
  store float %.sroa.speculated.i, ptr %53, align 8, !tbaa !39
  %54 = getelementptr inbounds nuw i8, ptr %35, i64 24
  %55 = load float, ptr %54, align 8, !tbaa !34
  %56 = fsub float %55, %33
  %57 = tail call noundef float @llvm.fabs.f32(float %56)
  %58 = getelementptr inbounds nuw i8, ptr %0, i64 28
  store float %57, ptr %58, align 4, !tbaa !40
  ret void
}